Certificate:
    Data:
        Version: 3 (0x2)
        Serial Number: 16 (0x10)
        Signature Algorithm: sha1WithRSAEncryption
        Issuer: C=CN, ST=Guangdong, L=Shenzhen, O=SrcLab, OU=CA, CN=CATester/emailAddress=ca@srclab.xyz
        Validity
            Not Before: Feb  7 13:56:42 2022 GMT
            Not After : Feb  7 13:56:42 2023 GMT
        Subject: C=CN, ST=Guangdong, O=SrcLab, OU=CA, CN=CATester/emailAddress=ca@srclab.xyz
        Subject Public Key Info:
            Public Key Algorithm: rsaEncryption
                RSA Public-Key: (2048 bit)
                Modulus:
                    00:ba:b5:cd:5a:20:13:0f:79:e1:38:67:03:4c:02:
                    78:99:93:52:8d:35:6c:39:5d:37:d7:d2:00:6e:62:
                    9a:f1:03:ec:74:90:db:b7:8b:7e:53:d0:6a:6e:ec:
                    95:69:ab:eb:68:08:18:72:ed:60:a5:9e:0d:f4:41:
                    9f:f1:4c:db:a0:fe:44:f4:cb:e5:c2:41:59:23:fc:
                    91:a6:2a:e3:12:53:cf:1d:d0:e5:4b:81:cd:99:79:
                    3a:7f:cf:3b:e0:a2:99:18:2e:7e:bf:d1:04:27:8a:
                    b4:07:07:d7:1b:b6:08:15:90:ff:fc:1d:a8:77:62:
                    2b:6c:5e:14:26:3b:9b:de:e1:39:85:c5:f2:d1:d9:
                    8b:2b:89:05:4e:eb:73:a1:11:97:a0:46:b6:f2:25:
                    7c:b9:94:c3:79:8e:64:5f:e6:6d:5a:c9:d1:69:c2:
                    60:78:66:92:2b:8f:a6:4b:3a:ee:f4:79:1c:4d:86:
                    9e:18:b0:79:c0:96:c1:9d:85:6a:0a:a3:db:b5:ec:
                    d0:cb:53:61:b8:92:f1:4d:7f:d7:87:e9:22:fe:1b:
                    39:f5:ed:b5:f3:ed:70:f8:f5:6b:24:90:7d:f9:f6:
                    48:92:e0:5d:ad:47:4a:a7:da:ed:7c:57:47:fa:bd:
                    dd:a8:a2:19:ba:f4:c1:e3:ff:b7:df:61:ef:fd:0f:
                    4b:0d
                Exponent: 65537 (0x10001)
        X509v3 extensions:
            X509v3 Basic Constraints: 
                CA:FALSE
            Netscape Comment: 
                OpenSSL Generated Certificate
            X509v3 Subject Key Identifier: 
                FA:C9:3F:1F:E6:59:13:A5:BF:61:01:93:40:A4:85:32:BA:43:2D:BD
            X509v3 Authority Key Identifier: 
                DirName:/C=CN/ST=Guangdong/L=Shenzhen/O=SrcLab/OU=CA/CN=CATester/emailAddress=ca@srclab.xyz
                serial:2C:09:8E:04:F3:2D:53:A0:48:0D:C0:59:0D:8A:28:2A:B2:C5:4B:BD

    Signature Algorithm: sha1WithRSAEncryption
         93:df:a4:c9:32:4a:bd:ec:bb:49:4a:32:2c:4e:48:b1:04:64:
         bf:da:0f:5d:ac:9c:92:5e:5b:f6:1b:3f:01:24:da:8f:2b:ca:
         79:8f:4c:e9:24:ef:72:8b:2a:ca:b7:13:e6:b9:7c:b7:65:2c:
         56:c4:18:3c:4f:73:7f:8b:ba:c0:38:ad:c2:59:a3:1f:24:1f:
         fe:04:55:f6:b1:47:c8:b4:e8:6a:42:b4:21:7d:75:f6:25:ff:
         80:66:4f:4e:58:cf:88:68:1b:52:b3:2b:59:f3:60:b8:5f:da:
         1f:f8:c7:31:0b:8f:5e:c2:72:e7:40:87:f1:aa:87:47:08:69:
         e2:18:6a:3a:c2:af:96:ee:45:b4:58:2a:c6:14:71:c3:47:27:
         db:dd:a3:c1:e5:f1:e0:06:6a:aa:d2:5c:b6:58:5b:52:fb:d2:
         c9:f2:7a:0e:22:3d:63:43:23:6e:21:66:5d:ff:19:5a:5b:cf:
         39:e3:53:0c:0c:6a:bf:b8:17:67:6a:98:17:68:f6:5c:5c:99:
         ad:49:80:9b:37:bd:4b:f4:d9:df:7a:69:62:56:c6:d2:fd:b4:
         fb:ae:31:38:5c:e9:c8:80:10:db:c3:56:fb:4d:f4:f5:ad:07:
         c2:95:2b:a6:91:68:8d:ba:f9:20:f3:d8:47:d1:69:89:45:08:
         31:70:4f:c1
-----BEGIN CERTIFICATE-----
MIIEfTCCA2WgAwIBAgIBEDANBgkqhkiG9w0BAQUFADCBgzELMAkGA1UEBhMCQ04x
EjAQBgNVBAgMCUd1YW5nZG9uZzERMA8GA1UEBwwIU2hlbnpoZW4xDzANBgNVBAoM
BlNyY0xhYjELMAkGA1UECwwCQ0ExETAPBgNVBAMMCENBVGVzdGVyMRwwGgYJKoZI
hvcNAQkBFg1jYUBzcmNsYWIueHl6MB4XDTIyMDIwNzEzNTY0MloXDTIzMDIwNzEz
NTY0MlowcDELMAkGA1UEBhMCQ04xEjAQBgNVBAgMCUd1YW5nZG9uZzEPMA0GA1UE
CgwGU3JjTGFiMQswCQYDVQQLDAJDQTERMA8GA1UEAwwIQ0FUZXN0ZXIxHDAaBgkq
hkiG9w0BCQEWDWNhQHNyY2xhYi54eXowggEiMA0GCSqGSIb3DQEBAQUAA4IBDwAw
ggEKAoIBAQC6tc1aIBMPeeE4ZwNMAniZk1KNNWw5XTfX0gBuYprxA+x0kNu3i35T
0Gpu7JVpq+toCBhy7WClng30QZ/xTNug/kT0y+XCQVkj/JGmKuMSU88d0OVLgc2Z
eTp/zzvgopkYLn6/0QQnirQHB9cbtggVkP/8Hah3YitsXhQmO5ve4TmFxfLR2Ysr
iQVO63OhEZegRrbyJXy5lMN5jmRf5m1aydFpwmB4ZpIrj6ZLOu70eRxNhp4YsHnA
lsGdhWoKo9u17NDLU2G4kvFNf9eH6SL+Gzn17bXz7XD49WskkH359kiS4F2tR0qn
2u18V0f6vd2oohm69MHj/7ffYe/9D0sNAgMBAAGjggEMMIIBCDAJBgNVHRMEAjAA
MCwGCWCGSAGG+EIBDQQfFh1PcGVuU1NMIEdlbmVyYXRlZCBDZXJ0aWZpY2F0ZTAd
BgNVHQ4EFgQU+sk/H+ZZE6W/YQGTQKSFMrpDLb0wga0GA1UdIwSBpTCBoqGBiaSB
hjCBgzELMAkGA1UEBhMCQ04xEjAQBgNVBAgMCUd1YW5nZG9uZzERMA8GA1UEBwwI
U2hlbnpoZW4xDzANBgNVBAoMBlNyY0xhYjELMAkGA1UECwwCQ0ExETAPBgNVBAMM
CENBVGVzdGVyMRwwGgYJKoZIhvcNAQkBFg1jYUBzcmNsYWIueHl6ghQsCY4E8y1T
oEgNwFkNiigqssVLvTANBgkqhkiG9w0BAQUFAAOCAQEAk9+kyTJKvey7SUoyLE5I
sQRkv9oPXayckl5b9hs/ASTajyvKeY9M6STvcosqyrcT5rl8t2UsVsQYPE9zf4u6
wDitwlmjHyQf/gRV9rFHyLToakK0IX119iX/gGZPTljPiGgbUrMrWfNguF/aH/jH
MQuPXsJy50CH8aqHRwhp4hhqOsKvlu5FtFgqxhRxw0cn292jweXx4AZqqtJctlhb
UvvSyfJ6DiI9Y0MjbiFmXf8ZWlvPOeNTDAxqv7gXZ2qYF2j2XFyZrUmAmze9S/TZ
33ppYlbG0v20+64xOFzpyIAQ28NW+0309a0HwpUrppFojbr5IPPYR9FpiUUIMXBP
wQ==
-----END CERTIFICATE-----
